target datalayout = "e-m:e-p270:32:32-p271:32:32-p272:64:64-i64:64-i128:128-f80:128-n8:16:32:64-S128"
target triple = "x86_64-pc-linux-gnu"

%class.V3ErrorCode = type { i8 }

@.str.63 = private unnamed_addr constant [7 x i8] c"UNUSED\00", align 1

; Function Attrs: mustprogress nounwind uwtable
define linkonce_odr dso_local noundef zeroext i8 @_ZNK11V3ErrorCodecvNS_2enEEv(ptr noundef nonnull align 1 dereferenceable(1) %0) #5 comdat align 2 {
  %2 = alloca ptr, align 8
  store ptr %0, ptr %2, align 8
  %3 = load ptr, ptr %2, align 8
  %4 = getelementptr inbounds %class.V3ErrorCode, ptr %3, i32 0, i32 0
  %5 = load i8, ptr %4, align 1
  ret i8 %5
}

; Function Attrs: mustprogress uwtable
define linkonce_odr dso_local void @_ZN8FileLine7warnOffE11V3ErrorCodeb(ptr noundef nonnull align 8 dereferenceable(40) %0, i8 %1, i1 noundef zeroext %2) #4 comdat align 2 {
  %4 = alloca %class.V3ErrorCode, align 1
  %5 = alloca ptr, align 8
  %6 = alloca i8, align 1
  %7 = alloca %class.V3ErrorCode, align 1
  %8 = getelementptr inbounds %class.V3ErrorCode, ptr %4, i32 0, i32 0
  store i8 %1, ptr %8, align 1
  store ptr %0, ptr %5, align 8
  %9 = zext i1 %2 to i8
  store i8 %9, ptr %6, align 1
  %10 = load ptr, ptr %5, align 8
  call void @llvm.memcpy.p0.p0.i64(ptr align 1 %7, ptr align 1 %4, i64 1, i1 false)
  %11 = load i8, ptr %6, align 1
  %12 = trunc i8 %11 to i1
  %13 = xor i1 %12, true
  %14 = getelementptr inbounds %class.V3ErrorCode, ptr %7, i32 0, i32 0
  %15 = load i8, ptr %14, align 1
  call void @_ZN8FileLine6warnOnE11V3ErrorCodeb(ptr noundef nonnull align 8 dereferenceable(40) %10, i8 %15, i1 noundef zeroext %13)
  ret void
}

; Function Attrs: mustprogress nounwind uwtable
define linkonce_odr dso_local void @_ZN11V3ErrorCodeC2ENS_2enE(ptr noundef nonnull align 1 dereferenceable(1) %0, i8 noundef zeroext %1) unnamed_addr #5 comdat align 2 {
  %3 = alloca ptr, align 8
  %4 = alloca i8, align 1
  store ptr %0, ptr %3, align 8
  store i8 %1, ptr %4, align 1
  %5 = load ptr, ptr %3, align 8
  %6 = getelementptr inbounds %class.V3ErrorCode, ptr %5, i32 0, i32 0
  %7 = load i8, ptr %4, align 1
  store i8 %7, ptr %6, align 1
  ret void
}

; Function Attrs: mustprogress nounwind uwtable
define linkonce_odr dso_local noundef zeroext i1 @_ZN11V3ErrorCode9unusedMsgEPKc(ptr noundef %0) #5 comdat align 2 {
  %2 = alloca ptr, align 8
  store ptr %0, ptr %2, align 8
  %3 = load ptr, ptr %2, align 8
  %4 = call i32 @strcasecmp(ptr noundef %3, ptr noundef @.str.63) #16
  %5 = icmp eq i32 0, %4
  ret i1 %5
}

; Function Attrs: mustprogress uwtable
define dso_local noundef zeroext i1 @_ZN8FileLine7warnOffERKNSt7__cxx1112basic_stringIcSt11char_traitsIcESaIcEEEb(ptr noundef nonnull align 8 dereferenceable(40) %0, ptr noundef nonnull align 8 dereferenceable(32) %1, i1 noundef zeroext %2) #4 align 2 {
  %4 = alloca i1, align 1
  %5 = alloca ptr, align 8
  %6 = alloca ptr, align 8
  %7 = alloca i8, align 1
  %8 = alloca ptr, align 8
  %9 = alloca %class.V3ErrorCode, align 1
  %10 = alloca %class.V3ErrorCode, align 1
  %11 = alloca %class.V3ErrorCode, align 1
  %12 = alloca %class.V3ErrorCode, align 1
  %13 = alloca %class.V3ErrorCode, align 1
  %14 = alloca %class.V3ErrorCode, align 1
  store ptr %0, ptr %5, align 8
  store ptr %1, ptr %6, align 8
  %15 = zext i1 %2 to i8
  store i8 %15, ptr %7, align 1
  %16 = load ptr, ptr %5, align 8
  %17 = load ptr, ptr %6, align 8
  %18 = call noundef ptr @_ZNKSt7__cxx1112basic_stringIcSt11char_traitsIcESaIcEE5c_strEv(ptr noundef nonnull align 8 dereferenceable(32) %17) #3
  store ptr %18, ptr %8, align 8
  %19 = load ptr, ptr %8, align 8
  %20 = call noundef zeroext i1 @_ZN11V3ErrorCode9unusedMsgEPKc(ptr noundef %19)
  br i1 %20, label %21, label %38

21:                                               ; preds = %3
  call void @_ZN11V3ErrorCodeC2ENS_2enE(ptr noundef nonnull align 1 dereferenceable(1) %9, i8 noundef zeroext 102)
  %22 = load i8, ptr %7, align 1
  %23 = trunc i8 %22 to i1
  %24 = getelementptr inbounds %class.V3ErrorCode, ptr %9, i32 0, i32 0
  %25 = load i8, ptr %24, align 1
  call void @_ZN8FileLine7warnOffE11V3ErrorCodeb(ptr noundef nonnull align 8 dereferenceable(40) %16, i8 %25, i1 noundef zeroext %23)
  call void @_ZN11V3ErrorCodeC2ENS_2enE(ptr noundef nonnull align 1 dereferenceable(1) %10, i8 noundef zeroext 103)
  %26 = load i8, ptr %7, align 1
  %27 = trunc i8 %26 to i1
  %28 = getelementptr inbounds %class.V3ErrorCode, ptr %10, i32 0, i32 0
  %29 = load i8, ptr %28, align 1
  call void @_ZN8FileLine7warnOffE11V3ErrorCodeb(ptr noundef nonnull align 8 dereferenceable(40) %16, i8 %29, i1 noundef zeroext %27)
  call void @_ZN11V3ErrorCodeC2ENS_2enE(ptr noundef nonnull align 1 dereferenceable(1) %11, i8 noundef zeroext 104)
  %30 = load i8, ptr %7, align 1
  %31 = trunc i8 %30 to i1
  %32 = getelementptr inbounds %class.V3ErrorCode, ptr %11, i32 0, i32 0
  %33 = load i8, ptr %32, align 1
  call void @_ZN8FileLine7warnOffE11V3ErrorCodeb(ptr noundef nonnull align 8 dereferenceable(40) %16, i8 %33, i1 noundef zeroext %31)
  call void @_ZN11V3ErrorCodeC2ENS_2enE(ptr noundef nonnull align 1 dereferenceable(1) %12, i8 noundef zeroext 105)
  %34 = load i8, ptr %7, align 1
  %35 = trunc i8 %34 to i1
  %36 = getelementptr inbounds %class.V3ErrorCode, ptr %12, i32 0, i32 0
  %37 = load i8, ptr %36, align 1
  call void @_ZN8FileLine7warnOffE11V3ErrorCodeb(ptr noundef nonnull align 8 dereferenceable(40) %16, i8 %37, i1 noundef zeroext %35)
  store i1 true, ptr %4, align 1
  br label %49

38:                                               ; preds = %3
  %39 = load ptr, ptr %8, align 8
  call void @_ZN11V3ErrorCodeC1EPKc(ptr noundef nonnull align 1 dereferenceable(1) %13, ptr noundef %39)
  %40 = call noundef zeroext i8 @_ZNK11V3ErrorCodecvNS_2enEEv(ptr noundef nonnull align 1 dereferenceable(1) %13)
  %41 = zext i8 %40 to i32
  %42 = icmp slt i32 %41, 20
  br i1 %42, label %43, label %44

43:                                               ; preds = %38
  store i1 false, ptr %4, align 1
  br label %49

44:                                               ; preds = %38
  call void @llvm.memcpy.p0.p0.i64(ptr align 1 %14, ptr align 1 %13, i64 1, i1 false)
  %45 = load i8, ptr %7, align 1
  %46 = trunc i8 %45 to i1
  %47 = getelementptr inbounds %class.V3ErrorCode, ptr %14, i32 0, i32 0
  %48 = load i8, ptr %47, align 1
  call void @_ZN8FileLine7warnOffE11V3ErrorCodeb(ptr noundef nonnull align 8 dereferenceable(40) %16, i8 %48, i1 noundef zeroext %46)
  store i1 true, ptr %4, align 1
  br label %49

49:                                               ; preds = %44, %43, %21
  %50 = load i1, ptr %4, align 1
  ret i1 %50
}