; Function Attrs: mustprogress uwtable
define dso_local noundef zeroext i1 @_ZN8FileLine7warnOffERKNSt7__cxx1112basic_stringIcSt11char_traitsIcESaIcEEEb(ptr noundef nonnull align 8 dereferenceable(40) %0, ptr noundef nonnull align 8 dereferenceable(32) %1, i1 noundef zeroext %2) local_unnamed_addr #3 align 2 {
  %4 = alloca %class.V3ErrorCode, align 1
  %5 = tail call noundef ptr @_ZNKSt7__cxx1112basic_stringIcSt11char_traitsIcESaIcEE5c_strEv(ptr noundef nonnull align 8 dereferenceable(32) %1) #20
  %6 = tail call i32 @strcasecmp(ptr noundef %5, ptr noundef nonnull @.str.63) #23
  %7 = icmp eq i32 %6, 0
  br i1 %7, label %8, label %10

8:                                                ; preds = %3
  %9 = xor i1 %2, true
  tail call void @_ZN8FileLine6warnOnE11V3ErrorCodeb(ptr noundef nonnull align 8 dereferenceable(40) %0, i8 102, i1 noundef zeroext %9)
  tail call void @_ZN8FileLine6warnOnE11V3ErrorCodeb(ptr noundef nonnull align 8 dereferenceable(40) %0, i8 103, i1 noundef zeroext %9)
  tail call void @_ZN8FileLine6warnOnE11V3ErrorCodeb(ptr noundef nonnull align 8 dereferenceable(40) %0, i8 104, i1 noundef zeroext %9)
  tail call void @_ZN8FileLine6warnOnE11V3ErrorCodeb(ptr noundef nonnull align 8 dereferenceable(40) %0, i8 105, i1 noundef zeroext %9)
  br label %15

10:                                               ; preds = %3
  call void @_ZN11V3ErrorCodeC1EPKc(ptr noundef nonnull align 1 dereferenceable(1) %4, ptr noundef %5)
  %11 = load i8, ptr %4, align 1
  %12 = icmp ult i8 %11, 20
  br i1 %12, label %15, label %13

13:                                               ; preds = %10
  %14 = xor i1 %2, true
  call void @_ZN8FileLine6warnOnE11V3ErrorCodeb(ptr noundef nonnull align 8 dereferenceable(40) %0, i8 %11, i1 noundef zeroext %14)
  br label %15

15:                                               ; preds = %10, %13, %8
  %.0 = phi i1 [ true, %8 ], [ true, %13 ], [ false, %10 ]
  ret i1 %.0
}